(lp0
(i__main__
Task
p1
(dp2
S'due'
p3
S'2021-03-24'
p4
sS'created'
p5
cdatetime
date
p6
(S'\x07\xe5\x03\x16'
p7
tp8
Rp9
sS'id'
p10
S'1'
p11
sS'name'
p12
S'mow lawn'
p13
sba.(lp0
(i__main__
Task
p1
(dp2
S'created'
p3
cdatetime
date
p4
(S'\x07\xe5\x03\x16'
p5
tp6
Rp7
sS'id'
p8
S'1'
p9
sS'name'
p10
S'mow lawn'
p11
sS'due'
p12
S'2021-03-24'
p13
sba(i__main__
Task
p14
(dp15
g12
S'2021-03-30'
p16
sg3
g4
(S'\x07\xe5\x03\x16'
p17
tp18
Rp19
sg8
S'2'
p20
sg10
S'read book'
p21
sba.