(lp0
(i__main__
Task
p1
(dp2
S'due'
p3
S'2021-04-21'
p4
sS'created'
p5
cdatetime
date
p6
(S'\x07\xe5\x03\x16'
p7
tp8
Rp9
sS'id'
p10
S'1'
p11
sS'name'
p12
S'mow lawn'
p13
sba.(lp0
(i__main__
Task
p1
(dp2
S'due'
p3
S'2021-04-21'
p4
sS'created'
p5
cdatetime
date
p6
(S'\x07\xe5\x03\x16'
p7
tp8
Rp9
sS'id'
p10
S'1'
p11
sS'name'
p12
S'mow lawn'
p13
sba.(lp0
(i__main__
Task
p1
(dp2
S'due'
p3
S'2021-03-30'
p4
sS'created'
p5
cdatetime
date
p6
(S'\x07\xe5\x03\x16'
p7
tp8
Rp9
sS'id'
p10
S'2'
p11
sS'name'
p12
S'read book'
p13
sba.(lp0
(i__main__
Task
p1
(dp2
S'due'
p3
S'2021-03-28'
p4
sS'created'
p5
cdatetime
date
p6
(S'\x07\xe5\x03\x16'
p7
tp8
Rp9
sS'id'
p10
S'3'
p11
sS'name'
p12
S'laundry'
p13
sba.(lp0
(i__main__
Task
p1
(dp2
S'due'
p3
S'2021-03-28'
p4
sS'created'
p5
cdatetime
date
p6
(S'\x07\xe5\x03\x16'
p7
tp8
Rp9
sS'id'
p10
S'3'
p11
sS'name'
p12
S'laundry'
p13
sba.(lp0
(i__main__
Task
p1
(dp2
S'due'
p3
S'2021-03-28'
p4
sS'created'
p5
cdatetime
date
p6
(S'\x07\xe5\x03\x16'
p7
tp8
Rp9
sS'id'
p10
S'3'
p11
sS'name'
p12
S'laundry'
p13
sba.(lp0
(i__main__
Task
p1
(dp2
S'due'
p3
S'2021-03-28'
p4
sS'created'
p5
cdatetime
date
p6
(S'\x07\xe5\x03\x16'
p7
tp8
Rp9
sS'id'
p10
S'3'
p11
sS'name'
p12
S'laundry'
p13
sba.(lp0
(i__main__
Task
p1
(dp2
S'due'
p3
S'2021-03-28'
p4
sS'created'
p5
cdatetime
date
p6
(S'\x07\xe5\x03\x16'
p7
tp8
Rp9
sS'id'
p10
S'3'
p11
sS'name'
p12
S'laundry'
p13
sba.(lp0
(i__main__
Task
p1
(dp2
S'due'
p3
S'2021-03-28'
p4
sS'created'
p5
cdatetime
date
p6
(S'\x07\xe5\x03\x16'
p7
tp8
Rp9
sS'id'
p10
S'3'
p11
sS'name'
p12
S'laundry'
p13
sba.