(lp0
(i__main__
Task
p1
(dp2
S'due'
p3
S'2021-04-22'
p4
sS'created'
p5
cdatetime
date
p6
(S'\x07\xe5\x03\x16'
p7
tp8
Rp9
sS'id'
p10
I1
sS'name'
p11
S'mow lawn'
p12
sba.(lp0
(i__main__
Task
p1
(dp2
S'due'
p3
S'2021-03-24'
p4
sS'created'
p5
cdatetime
date
p6
(S'\x07\xe5\x03\x16'
p7
tp8
Rp9
sS'id'
p10
I1
sS'name'
p11
S'read book'
p12
sba.(lp0
(i__main__
Task
p1
(dp2
S'due'
p3
S'2021-04-22'
p4
sS'created'
p5
cdatetime
date
p6
(S'\x07\xe5\x03\x16'
p7
tp8
Rp9
sS'id'
p10
I1
sS'name'
p11
S'mow lawn'
p12
sba.(lp0
(i__main__
Task
p1
(dp2
S'due'
p3
S'2021-04-22'
p4
sS'created'
p5
cdatetime
date
p6
(S'\x07\xe5\x03\x16'
p7
tp8
Rp9
sS'id'
p10
I1
sS'name'
p11
S'mow lawn'
p12
sba.